; ModuleID = '21/917.c'
source_filename = "21/917.c"
target datalayout = "e-m:e-p270:32:32-p271:32:32-p272:64:64-i64:64-f80:128-n8:16:32:64-S128"
target triple = "x86_64-pc-linux-gnu"

@.str = private unnamed_addr constant [3 x i8] c"%d\00", align 1
@.str.1 = private unnamed_addr constant [4 x i8] c"%d,\00", align 1

; Function Attrs: noinline nounwind uwtable
define dso_local i32 @main() #0 {
  %1 = alloca i32, align 4
  %2 = alloca i32, align 4
  %3 = alloca i32, align 4
  %4 = alloca i32, align 4
  %5 = alloca i32, align 4
  %6 = alloca i32, align 4
  %7 = alloca [1000 x i32], align 16
  %8 = alloca [1000 x i32], align 16
  %9 = alloca float, align 4
  %10 = alloca float, align 4
  store i32 0, i32* %1, align 4
  %11 = call i32 (i8*, ...) @__isoc99_scanf(i8* getelementptr inbounds ([3 x i8], [3 x i8]* @.str, i64 0, i64 0), i32* %2)
  store i32 1, i32* %3, align 4
  br label %12

12:                                               ; preds = %21, %0
  %13 = load i32, i32* %3, align 4
  %14 = load i32, i32* %2, align 4
  %15 = icmp sle i32 %13, %14
  br i1 %15, label %16, label %24

16:                                               ; preds = %12
  %17 = load i32, i32* %3, align 4
  %18 = sext i32 %17 to i64
  %19 = getelementptr inbounds [1000 x i32], [1000 x i32]* %7, i64 0, i64 %18
  %20 = call i32 (i8*, ...) @__isoc99_scanf(i8* getelementptr inbounds ([3 x i8], [3 x i8]* @.str, i64 0, i64 0), i32* %19)
  br label %21

21:                                               ; preds = %16
  %22 = load i32, i32* %3, align 4
  %23 = add nsw i32 %22, 1
  store i32 %23, i32* %3, align 4
  br label %12

24:                                               ; preds = %12
  store float 0.000000e+00, float* %9, align 4
  store i32 1, i32* %3, align 4
  br label %25

25:                                               ; preds = %37, %24
  %26 = load i32, i32* %3, align 4
  %27 = load i32, i32* %2, align 4
  %28 = icmp sle i32 %26, %27
  br i1 %28, label %29, label %40

29:                                               ; preds = %25
  %30 = load float, float* %9, align 4
  %31 = load i32, i32* %3, align 4
  %32 = sext i32 %31 to i64
  %33 = getelementptr inbounds [1000 x i32], [1000 x i32]* %7, i64 0, i64 %32
  %34 = load i32, i32* %33, align 4
  %35 = sitofp i32 %34 to float
  %36 = fadd float %30, %35
  store float %36, float* %9, align 4
  br label %37

37:                                               ; preds = %29
  %38 = load i32, i32* %3, align 4
  %39 = add nsw i32 %38, 1
  store i32 %39, i32* %3, align 4
  br label %25

40:                                               ; preds = %25
  %41 = load float, float* %9, align 4
  %42 = load i32, i32* %2, align 4
  %43 = sitofp i32 %42 to float
  %44 = fdiv float %41, %43
  store float %44, float* %9, align 4
  store float 0.000000e+00, float* %10, align 4
  store i32 1, i32* %3, align 4
  br label %45

45:                                               ; preds = %104, %40
  %46 = load i32, i32* %3, align 4
  %47 = load i32, i32* %2, align 4
  %48 = icmp sle i32 %46, %47
  br i1 %48, label %49, label %107

49:                                               ; preds = %45
  %50 = load i32, i32* %3, align 4
  %51 = sext i32 %50 to i64
  %52 = getelementptr inbounds [1000 x i32], [1000 x i32]* %7, i64 0, i64 %51
  %53 = load i32, i32* %52, align 4
  %54 = sitofp i32 %53 to float
  %55 = load float, float* %9, align 4
  %56 = fsub float %54, %55
  %57 = fpext float %56 to double
  %58 = call double @llvm.fabs.f64(double %57)
  %59 = load float, float* %10, align 4
  %60 = fpext float %59 to double
  %61 = fcmp ogt double %58, %60
  br i1 %61, label %62, label %80

62:                                               ; preds = %49
  %63 = load i32, i32* %3, align 4
  %64 = sext i32 %63 to i64
  %65 = getelementptr inbounds [1000 x i32], [1000 x i32]* %7, i64 0, i64 %64
  %66 = load i32, i32* %65, align 4
  %67 = sitofp i32 %66 to float
  %68 = load float, float* %9, align 4
  %69 = fsub float %67, %68
  %70 = fpext float %69 to double
  %71 = call double @llvm.fabs.f64(double %70)
  %72 = fptrunc double %71 to float
  store float %72, float* %10, align 4
  store i32 1, i32* %5, align 4
  %73 = load i32, i32* %3, align 4
  %74 = sext i32 %73 to i64
  %75 = getelementptr inbounds [1000 x i32], [1000 x i32]* %7, i64 0, i64 %74
  %76 = load i32, i32* %75, align 4
  %77 = load i32, i32* %5, align 4
  %78 = sext i32 %77 to i64
  %79 = getelementptr inbounds [1000 x i32], [1000 x i32]* %8, i64 0, i64 %78
  store i32 %76, i32* %79, align 4
  br label %104

80:                                               ; preds = %49
  %81 = load i32, i32* %3, align 4
  %82 = sext i32 %81 to i64
  %83 = getelementptr inbounds [1000 x i32], [1000 x i32]* %7, i64 0, i64 %82
  %84 = load i32, i32* %83, align 4
  %85 = sitofp i32 %84 to float
  %86 = load float, float* %9, align 4
  %87 = fsub float %85, %86
  %88 = fpext float %87 to double
  %89 = call double @llvm.fabs.f64(double %88)
  %90 = load float, float* %10, align 4
  %91 = fpext float %90 to double
  %92 = fcmp oeq double %89, %91
  br i1 %92, label %93, label %103

93:                                               ; preds = %80
  %94 = load i32, i32* %5, align 4
  %95 = add nsw i32 %94, 1
  store i32 %95, i32* %5, align 4
  %96 = load i32, i32* %3, align 4
  %97 = sext i32 %96 to i64
  %98 = getelementptr inbounds [1000 x i32], [1000 x i32]* %7, i64 0, i64 %97
  %99 = load i32, i32* %98, align 4
  %100 = load i32, i32* %5, align 4
  %101 = sext i32 %100 to i64
  %102 = getelementptr inbounds [1000 x i32], [1000 x i32]* %8, i64 0, i64 %101
  store i32 %99, i32* %102, align 4
  br label %103

103:                                              ; preds = %93, %80
  br label %104

104:                                              ; preds = %103, %62
  %105 = load i32, i32* %3, align 4
  %106 = add nsw i32 %105, 1
  store i32 %106, i32* %3, align 4
  br label %45

107:                                              ; preds = %45
  store i32 1, i32* %3, align 4
  br label %108

108:                                              ; preds = %151, %107
  %109 = load i32, i32* %3, align 4
  %110 = load i32, i32* %5, align 4
  %111 = sub nsw i32 %110, 1
  %112 = icmp sle i32 %109, %111
  br i1 %112, label %113, label %154

113:                                              ; preds = %108
  %114 = load i32, i32* %3, align 4
  %115 = add nsw i32 %114, 1
  store i32 %115, i32* %4, align 4
  br label %116

116:                                              ; preds = %147, %113
  %117 = load i32, i32* %4, align 4
  %118 = load i32, i32* %5, align 4
  %119 = icmp sle i32 %117, %118
  br i1 %119, label %120, label %150

120:                                              ; preds = %116
  %121 = load i32, i32* %3, align 4
  %122 = sext i32 %121 to i64
  %123 = getelementptr inbounds [1000 x i32], [1000 x i32]* %8, i64 0, i64 %122
  %124 = load i32, i32* %123, align 4
  %125 = load i32, i32* %4, align 4
  %126 = sext i32 %125 to i64
  %127 = getelementptr inbounds [1000 x i32], [1000 x i32]* %8, i64 0, i64 %126
  %128 = load i32, i32* %127, align 4
  %129 = icmp sgt i32 %124, %128
  br i1 %129, label %130, label %146

130:                                              ; preds = %120
  %131 = load i32, i32* %3, align 4
  %132 = sext i32 %131 to i64
  %133 = getelementptr inbounds [1000 x i32], [1000 x i32]* %8, i64 0, i64 %132
  %134 = load i32, i32* %133, align 4
  store i32 %134, i32* %6, align 4
  %135 = load i32, i32* %4, align 4
  %136 = sext i32 %135 to i64
  %137 = getelementptr inbounds [1000 x i32], [1000 x i32]* %8, i64 0, i64 %136
  %138 = load i32, i32* %137, align 4
  %139 = load i32, i32* %3, align 4
  %140 = sext i32 %139 to i64
  %141 = getelementptr inbounds [1000 x i32], [1000 x i32]* %8, i64 0, i64 %140
  store i32 %138, i32* %141, align 4
  %142 = load i32, i32* %6, align 4
  %143 = load i32, i32* %4, align 4
  %144 = sext i32 %143 to i64
  %145 = getelementptr inbounds [1000 x i32], [1000 x i32]* %8, i64 0, i64 %144
  store i32 %142, i32* %145, align 4
  br label %146

146:                                              ; preds = %130, %120
  br label %147

147:                                              ; preds = %146
  %148 = load i32, i32* %4, align 4
  %149 = add nsw i32 %148, 1
  store i32 %149, i32* %4, align 4
  br label %116

150:                                              ; preds = %116
  br label %151

151:                                              ; preds = %150
  %152 = load i32, i32* %3, align 4
  %153 = add nsw i32 %152, 1
  store i32 %153, i32* %3, align 4
  br label %108

154:                                              ; preds = %108
  store i32 1, i32* %3, align 4
  br label %155

155:                                              ; preds = %166, %154
  %156 = load i32, i32* %3, align 4
  %157 = load i32, i32* %5, align 4
  %158 = sub nsw i32 %157, 1
  %159 = icmp sle i32 %156, %158
  br i1 %159, label %160, label %169

160:                                              ; preds = %155
  %161 = load i32, i32* %3, align 4
  %162 = sext i32 %161 to i64
  %163 = getelementptr inbounds [1000 x i32], [1000 x i32]* %8, i64 0, i64 %162
  %164 = load i32, i32* %163, align 4
  %165 = call i32 (i8*, ...) @printf(i8* getelementptr inbounds ([4 x i8], [4 x i8]* @.str.1, i64 0, i64 0), i32 %164)
  br label %166

166:                                              ; preds = %160
  %167 = load i32, i32* %3, align 4
  %168 = add nsw i32 %167, 1
  store i32 %168, i32* %3, align 4
  br label %155

169:                                              ; preds = %155
  %170 = load i32, i32* %5, align 4
  %171 = sext i32 %170 to i64
  %172 = getelementptr inbounds [1000 x i32], [1000 x i32]* %8, i64 0, i64 %171
  %173 = load i32, i32* %172, align 4
  %174 = call i32 (i8*, ...) @printf(i8* getelementptr inbounds ([3 x i8], [3 x i8]* @.str, i64 0, i64 0), i32 %173)
  %175 = load i32, i32* %1, align 4
  ret i32 %175
}

declare dso_local i32 @__isoc99_scanf(i8*, ...) #1

; Function Attrs: nounwind readnone speculatable willreturn
declare double @llvm.fabs.f64(double) #2

declare dso_local i32 @printf(i8*, ...) #1


!llvm.module.flags = !{!0}
!llvm.ident = !{!1}

!0 = !{i32 1, !"wchar_size", i32 4}
!1 = !{!"clang version 10.0.0-4ubuntu1 "}
